target datalayout = "e-m:e-p270:32:32-p271:32:32-p272:64:64-i64:64-i128:128-f80:128-n8:16:32:64-S128"
target triple = "x86_64-pc-linux-gnu"

%struct._Py_SourceLocation = type { i32, i32, i32, i32 }
%struct._PyJumpTargetLabel = type { i32 }
%struct._PyCfgBuilder = type { ptr, ptr, ptr, %struct._PyJumpTargetLabel }
%struct._PyCfgBasicblock = type { ptr, %struct._PyJumpTargetLabel, ptr, ptr, ptr, i32, i32, i64, i32, i32, i8 }
%struct._PyCfgInstruction = type { i32, i32, %struct._Py_SourceLocation, ptr, ptr }

; Function Attrs: nounwind uwtable
define internal i32 @basicblock_next_instr(ptr noundef %0) #0 {
  %2 = alloca i32, align 4
  %3 = alloca ptr, align 8
  store ptr %0, ptr %3, align 8, !tbaa !14
  %4 = load ptr, ptr %3, align 8, !tbaa !14
  %5 = getelementptr inbounds nuw %struct._PyCfgBasicblock, ptr %4, i32 0, i32 5
  %6 = load i32, ptr %5, align 8, !tbaa !44
  %7 = add i32 %6, 1
  %8 = load ptr, ptr %3, align 8, !tbaa !14
  %9 = getelementptr inbounds nuw %struct._PyCfgBasicblock, ptr %8, i32 0, i32 3
  %10 = load ptr, ptr %3, align 8, !tbaa !14
  %11 = getelementptr inbounds nuw %struct._PyCfgBasicblock, ptr %10, i32 0, i32 6
  %12 = call i32 @_PyCompile_EnsureArrayLargeEnough(i32 noundef %7, ptr noundef %9, ptr noundef %11, i32 noundef 16, i64 noundef 40)
  %13 = icmp eq i32 %12, -1
  br i1 %13, label %14, label %15

14:                                               ; preds = %1
  store i32 -1, ptr %2, align 4
  br label %20

15:                                               ; preds = %1
  %16 = load ptr, ptr %3, align 8, !tbaa !14
  %17 = getelementptr inbounds nuw %struct._PyCfgBasicblock, ptr %16, i32 0, i32 5
  %18 = load i32, ptr %17, align 8, !tbaa !44
  %19 = add i32 %18, 1
  store i32 %19, ptr %17, align 8, !tbaa !44
  store i32 %18, ptr %2, align 4
  br label %20

20:                                               ; preds = %15, %14
  %21 = load i32, ptr %2, align 4
  ret i32 %21
}

; Function Attrs: nounwind uwtable
define internal i32 @basicblock_addop(ptr noundef %0, i32 noundef %1, i32 noundef %2, i64 %3, i64 %4) #0 {
  %6 = alloca i32, align 4
  %7 = alloca %struct._Py_SourceLocation, align 4
  %8 = alloca ptr, align 8
  %9 = alloca i32, align 4
  %10 = alloca i32, align 4
  %11 = alloca i32, align 4
  %12 = alloca i32, align 4
  %13 = alloca ptr, align 8
  %14 = getelementptr inbounds nuw { i64, i64 }, ptr %7, i32 0, i32 0
  store i64 %3, ptr %14, align 4
  %15 = getelementptr inbounds nuw { i64, i64 }, ptr %7, i32 0, i32 1
  store i64 %4, ptr %15, align 4
  store ptr %0, ptr %8, align 8, !tbaa !14
  store i32 %1, ptr %9, align 4, !tbaa !19
  store i32 %2, ptr %10, align 4, !tbaa !19
  call void @llvm.lifetime.start.p0(i64 4, ptr %11) #7
  %16 = load ptr, ptr %8, align 8, !tbaa !14
  %17 = call i32 @basicblock_next_instr(ptr noundef %16)
  store i32 %17, ptr %11, align 4, !tbaa !19
  %18 = load i32, ptr %11, align 4, !tbaa !19
  %19 = icmp slt i32 %18, 0
  br i1 %19, label %20, label %21

20:                                               ; preds = %5
  store i32 -1, ptr %6, align 4
  store i32 1, ptr %12, align 4
  br label %38

21:                                               ; preds = %5
  call void @llvm.lifetime.start.p0(i64 8, ptr %13) #7
  %22 = load ptr, ptr %8, align 8, !tbaa !14
  %23 = getelementptr inbounds nuw %struct._PyCfgBasicblock, ptr %22, i32 0, i32 3
  %24 = load ptr, ptr %23, align 8, !tbaa !20
  %25 = load i32, ptr %11, align 4, !tbaa !19
  %26 = sext i32 %25 to i64
  %27 = getelementptr %struct._PyCfgInstruction, ptr %24, i64 %26
  store ptr %27, ptr %13, align 8, !tbaa !29
  %28 = load i32, ptr %9, align 4, !tbaa !19
  %29 = load ptr, ptr %13, align 8, !tbaa !29
  %30 = getelementptr inbounds nuw %struct._PyCfgInstruction, ptr %29, i32 0, i32 0
  store i32 %28, ptr %30, align 8, !tbaa !30
  %31 = load i32, ptr %10, align 4, !tbaa !19
  %32 = load ptr, ptr %13, align 8, !tbaa !29
  %33 = getelementptr inbounds nuw %struct._PyCfgInstruction, ptr %32, i32 0, i32 1
  store i32 %31, ptr %33, align 4, !tbaa !33
  %34 = load ptr, ptr %13, align 8, !tbaa !29
  %35 = getelementptr inbounds nuw %struct._PyCfgInstruction, ptr %34, i32 0, i32 3
  store ptr null, ptr %35, align 8, !tbaa !34
  %36 = load ptr, ptr %13, align 8, !tbaa !29
  %37 = getelementptr inbounds nuw %struct._PyCfgInstruction, ptr %36, i32 0, i32 2
  call void @llvm.memcpy.p0.p0.i64(ptr align 8 %37, ptr align 4 %7, i64 16, i1 false), !tbaa.struct !35
  store i32 0, ptr %6, align 4
  store i32 1, ptr %12, align 4
  call void @llvm.lifetime.end.p0(i64 8, ptr %13) #7
  br label %38

38:                                               ; preds = %21, %20
  call void @llvm.lifetime.end.p0(i64 4, ptr %11) #7
  %39 = load i32, ptr %6, align 4
  ret i32 %39
}

; Function Attrs: nounwind uwtable
define hidden i32 @_PyCfgBuilder_Addop(ptr noundef %0, i32 noundef %1, i32 noundef %2, i64 %3, i64 %4) #0 {
  %6 = alloca i32, align 4
  %7 = alloca %struct._Py_SourceLocation, align 4
  %8 = alloca ptr, align 8
  %9 = alloca i32, align 4
  %10 = alloca i32, align 4
  %11 = getelementptr inbounds nuw { i64, i64 }, ptr %7, i32 0, i32 0
  store i64 %3, ptr %11, align 4
  %12 = getelementptr inbounds nuw { i64, i64 }, ptr %7, i32 0, i32 1
  store i64 %4, ptr %12, align 4
  store ptr %0, ptr %8, align 8, !tbaa !4
  store i32 %1, ptr %9, align 4, !tbaa !19
  store i32 %2, ptr %10, align 4, !tbaa !19
  %13 = load ptr, ptr %8, align 8, !tbaa !4
  %14 = call i32 @cfg_builder_maybe_start_new_block(ptr noundef %13)
  %15 = icmp eq i32 %14, -1
  br i1 %15, label %16, label %17

16:                                               ; preds = %5
  store i32 -1, ptr %6, align 4
  br label %28

17:                                               ; preds = %5
  %18 = load ptr, ptr %8, align 8, !tbaa !4
  %19 = getelementptr inbounds nuw %struct._PyCfgBuilder, ptr %18, i32 0, i32 2
  %20 = load ptr, ptr %19, align 8, !tbaa !16
  %21 = load i32, ptr %9, align 4, !tbaa !19
  %22 = load i32, ptr %10, align 4, !tbaa !19
  %23 = getelementptr inbounds nuw { i64, i64 }, ptr %7, i32 0, i32 0
  %24 = load i64, ptr %23, align 4
  %25 = getelementptr inbounds nuw { i64, i64 }, ptr %7, i32 0, i32 1
  %26 = load i64, ptr %25, align 4
  %27 = call i32 @basicblock_addop(ptr noundef %20, i32 noundef %21, i32 noundef %22, i64 %24, i64 %26)
  store i32 %27, ptr %6, align 4
  br label %28

28:                                               ; preds = %17, %16
  %29 = load i32, ptr %6, align 4
  ret i32 %29
}