; Function Attrs: nounwind uwtable
define hidden range(i32 -1, 1) i32 @_PyCfgBuilder_Addop(ptr noundef captures(none) %0, i32 noundef %1, i32 noundef %2, i64 %3, i64 %4) local_unnamed_addr #0 {
  %6 = tail call fastcc i32 @cfg_builder_maybe_start_new_block(ptr noundef %0)
  %7 = icmp eq i32 %6, -1
  br i1 %7, label %basicblock_addop.exit, label %8

8:                                                ; preds = %5
  %9 = getelementptr inbounds nuw i8, ptr %0, i64 16
  %10 = load ptr, ptr %9, align 8, !tbaa !19
  %11 = getelementptr inbounds nuw i8, ptr %10, i64 40
  %12 = load i32, ptr %11, align 8, !tbaa !25
  %13 = add i32 %12, 1
  %14 = getelementptr inbounds nuw i8, ptr %10, i64 24
  %15 = getelementptr inbounds nuw i8, ptr %10, i64 44
  %16 = tail call i32 @_PyCompile_EnsureArrayLargeEnough(i32 noundef %13, ptr noundef nonnull %14, ptr noundef nonnull %15, i32 noundef 16, i64 noundef 40) #8
  %17 = icmp eq i32 %16, -1
  br i1 %17, label %basicblock_addop.exit, label %basicblock_next_instr.exit.i

basicblock_next_instr.exit.i:                     ; preds = %8
  %18 = load i32, ptr %11, align 8, !tbaa !25
  %19 = add i32 %18, 1
  store i32 %19, ptr %11, align 8, !tbaa !25
  %20 = icmp slt i32 %18, 0
  br i1 %20, label %basicblock_addop.exit, label %21

21:                                               ; preds = %basicblock_next_instr.exit.i
  %22 = load ptr, ptr %14, align 8, !tbaa !20
  %23 = zext nneg i32 %18 to i64
  %24 = getelementptr %struct._PyCfgInstruction, ptr %22, i64 %23
  store i32 %1, ptr %24, align 8, !tbaa !26
  %25 = getelementptr inbounds nuw i8, ptr %24, i64 4
  store i32 %2, ptr %25, align 4, !tbaa !35
  %26 = getelementptr inbounds nuw i8, ptr %24, i64 24
  store ptr null, ptr %26, align 8, !tbaa !36
  %27 = getelementptr inbounds nuw i8, ptr %24, i64 8
  store i64 %3, ptr %27, align 8
  %.sroa.2.0..sroa_idx.i = getelementptr inbounds nuw i8, ptr %24, i64 16
  store i64 %4, ptr %.sroa.2.0..sroa_idx.i, align 8
  br label %basicblock_addop.exit

basicblock_addop.exit:                            ; preds = %21, %basicblock_next_instr.exit.i, %8, %5
  %.0 = phi i32 [ -1, %5 ], [ 0, %21 ], [ -1, %basicblock_next_instr.exit.i ], [ -1, %8 ]
  ret i32 %.0
}